target datalayout = "e-m:e-p270:32:32-p271:32:32-p272:64:64-i64:64-i128:128-f80:128-n8:16:32:64-S128"
target triple = "x86_64-pc-linux-gnu"

%struct.mempool_s = type { i64, i64, i64, i64, i8, ptr, ptr, ptr, ptr, %struct.sq_queue_s, %struct.sq_queue_s, %struct.sq_queue_s, i64, i8, %struct.sem_s, %struct.mempool_procfs_entry_s }
%struct.sq_queue_s = type { ptr, ptr }
%struct.sem_s = type { i16, i8, %struct.dq_queue_s, ptr }
%struct.dq_queue_s = type { ptr, ptr }
%struct.mempool_procfs_entry_s = type { ptr, ptr }
%struct.sq_entry_s = type { ptr }

@g_current_regs = external global ptr, align 8

; Function Attrs: nounwind uwtable
define internal void @up_irq_enable() #0 {
  call void asm sideeffect "sti", "~{memory},~{dirflag},~{fpsr},~{flags}"() #3, !srcloc !14
  ret void
}

; Function Attrs: nounwind uwtable
define internal zeroext i1 @up_irq_enabled(i64 noundef %0) #0 {
  %2 = alloca i64, align 8
  store i64 %0, ptr %2, align 8
  %3 = load i64, ptr %2, align 8
  %4 = and i64 %3, 512
  %5 = icmp ne i64 %4, 0
  ret i1 %5
}

; Function Attrs: nounwind uwtable
define internal void @up_irq_disable() #0 {
  call void asm sideeffect "cli", "~{memory},~{dirflag},~{fpsr},~{flags}"() #3, !srcloc !12
  ret void
}

; Function Attrs: nounwind uwtable
define internal i64 @irqflags() #0 {
  %1 = alloca i64, align 8
  call void asm sideeffect "\09pushfq\0A\09popq $0\0A", "=*rm,~{memory},~{dirflag},~{fpsr},~{flags}"(ptr elementtype(i64) %1) #3, !srcloc !13
  %2 = load i64, ptr %1, align 8
  ret i64 %2
}

; Function Attrs: nounwind uwtable
define internal void @mempool_add_queue(ptr noundef %0, ptr noundef %1, i64 noundef %2, i64 noundef %3) #0 {
  %5 = alloca ptr, align 8
  %6 = alloca ptr, align 8
  %7 = alloca i64, align 8
  %8 = alloca i64, align 8
  %9 = alloca ptr, align 8
  store ptr %0, ptr %5, align 8
  store ptr %1, ptr %6, align 8
  store i64 %2, ptr %7, align 8
  store i64 %3, ptr %8, align 8
  br label %10

10:                                               ; preds = %38, %4
  %11 = load i64, ptr %7, align 8
  %12 = add i64 %11, -1
  store i64 %12, ptr %7, align 8
  %13 = icmp ugt i64 %11, 0
  br i1 %13, label %14, label %39

14:                                               ; preds = %10
  br label %15

15:                                               ; preds = %14
  %16 = load ptr, ptr %6, align 8
  %17 = load i64, ptr %8, align 8
  %18 = load i64, ptr %7, align 8
  %19 = mul i64 %17, %18
  %20 = getelementptr inbounds i8, ptr %16, i64 %19
  store ptr %20, ptr %9, align 8
  %21 = load ptr, ptr %5, align 8
  %22 = getelementptr inbounds %struct.sq_queue_s, ptr %21, i32 0, i32 0
  %23 = load ptr, ptr %22, align 8
  %24 = load ptr, ptr %9, align 8
  %25 = getelementptr inbounds %struct.sq_entry_s, ptr %24, i32 0, i32 0
  store ptr %23, ptr %25, align 8
  %26 = load ptr, ptr %5, align 8
  %27 = getelementptr inbounds %struct.sq_queue_s, ptr %26, i32 0, i32 0
  %28 = load ptr, ptr %27, align 8
  %29 = icmp ne ptr %28, null
  br i1 %29, label %34, label %30

30:                                               ; preds = %15
  %31 = load ptr, ptr %9, align 8
  %32 = load ptr, ptr %5, align 8
  %33 = getelementptr inbounds %struct.sq_queue_s, ptr %32, i32 0, i32 1
  store ptr %31, ptr %33, align 8
  br label %34

34:                                               ; preds = %30, %15
  %35 = load ptr, ptr %9, align 8
  %36 = load ptr, ptr %5, align 8
  %37 = getelementptr inbounds %struct.sq_queue_s, ptr %36, i32 0, i32 0
  store ptr %35, ptr %37, align 8
  br label %38

38:                                               ; preds = %34
  br label %10, !llvm.loop !6

39:                                               ; preds = %10
  ret void
}

; Function Attrs: nounwind uwtable
define internal void @up_irq_restore(i64 noundef %0) #0 {
  %2 = alloca i64, align 8
  store i64 %0, ptr %2, align 8
  %3 = load i64, ptr %2, align 8
  %4 = call zeroext i1 @up_irq_enabled(i64 noundef %3)
  br i1 %4, label %5, label %6

5:                                                ; preds = %1
  call void @up_irq_enable()
  br label %6

6:                                                ; preds = %5, %1
  ret void
}

; Function Attrs: nounwind uwtable
define internal ptr @mempool_remove_queue(ptr noundef %0) #0 {
  %2 = alloca ptr, align 8
  %3 = alloca ptr, align 8
  %4 = alloca ptr, align 8
  store ptr %0, ptr %3, align 8
  %5 = load ptr, ptr %3, align 8
  %6 = getelementptr inbounds %struct.sq_queue_s, ptr %5, i32 0, i32 0
  %7 = load ptr, ptr %6, align 8
  %8 = icmp eq ptr %7, null
  br i1 %8, label %19, label %9

9:                                                ; preds = %1
  %10 = load ptr, ptr %3, align 8
  %11 = getelementptr inbounds %struct.sq_queue_s, ptr %10, i32 0, i32 0
  %12 = load ptr, ptr %11, align 8
  store ptr %12, ptr %4, align 8
  %13 = load ptr, ptr %4, align 8
  %14 = getelementptr inbounds %struct.sq_entry_s, ptr %13, i32 0, i32 0
  %15 = load ptr, ptr %14, align 8
  %16 = load ptr, ptr %3, align 8
  %17 = getelementptr inbounds %struct.sq_queue_s, ptr %16, i32 0, i32 0
  store ptr %15, ptr %17, align 8
  %18 = load ptr, ptr %4, align 8
  store ptr %18, ptr %2, align 8
  br label %20

19:                                               ; preds = %1
  store ptr null, ptr %2, align 8
  br label %20

20:                                               ; preds = %19, %9
  %21 = load ptr, ptr %2, align 8
  ret ptr %21
}

; Function Attrs: nounwind uwtable
define internal i64 @up_irq_save() #0 {
  %1 = alloca i64, align 8
  %2 = call i64 @irqflags()
  store i64 %2, ptr %1, align 8
  call void @up_irq_disable()
  %3 = load i64, ptr %1, align 8
  ret i64 %3
}

; Function Attrs: nounwind uwtable
define ptr @mempool_alloc(ptr noundef %0) #0 {
  %2 = alloca ptr, align 8
  %3 = alloca ptr, align 8
  %4 = alloca ptr, align 8
  %5 = alloca i64, align 8
  %6 = alloca i64, align 8
  %7 = alloca i64, align 8
  %8 = alloca i64, align 8
  %9 = alloca ptr, align 8
  %10 = alloca ptr, align 8
  store ptr %0, ptr %3, align 8
  br label %11

11:                                               ; preds = %116, %1
  %12 = call i64 @up_irq_save()
  store i64 %12, ptr %5, align 8
  %13 = load ptr, ptr %3, align 8
  %14 = getelementptr inbounds %struct.mempool_s, ptr %13, i32 0, i32 9
  %15 = call ptr @mempool_remove_queue(ptr noundef %14)
  store ptr %15, ptr %4, align 8
  %16 = load ptr, ptr %4, align 8
  %17 = icmp eq ptr %16, null
  br i1 %17, label %18, label %119

18:                                               ; preds = %11
  %19 = load ptr, ptr @g_current_regs, align 8
  %20 = icmp ne ptr %19, null
  br i1 %20, label %21, label %29

21:                                               ; preds = %18
  %22 = load ptr, ptr %3, align 8
  %23 = getelementptr inbounds %struct.mempool_s, ptr %22, i32 0, i32 10
  %24 = call ptr @mempool_remove_queue(ptr noundef %23)
  store ptr %24, ptr %4, align 8
  %25 = load ptr, ptr %4, align 8
  %26 = icmp eq ptr %25, null
  br i1 %26, label %27, label %28

27:                                               ; preds = %21
  br label %124

28:                                               ; preds = %21
  br label %118

29:                                               ; preds = %18
  %30 = load ptr, ptr %3, align 8
  %31 = getelementptr inbounds %struct.mempool_s, ptr %30, i32 0, i32 0
  %32 = load i64, ptr %31, align 8
  store i64 %32, ptr %6, align 8
  %33 = load i64, ptr %5, align 8
  call void @up_irq_restore(i64 noundef %33)
  %34 = load ptr, ptr %3, align 8
  %35 = getelementptr inbounds %struct.mempool_s, ptr %34, i32 0, i32 3
  %36 = load i64, ptr %35, align 8
  %37 = load i64, ptr %6, align 8
  %38 = add i64 %37, 8
  %39 = icmp uge i64 %36, %38
  br i1 %39, label %40, label %105

40:                                               ; preds = %29
  %41 = load ptr, ptr %3, align 8
  %42 = getelementptr inbounds %struct.mempool_s, ptr %41, i32 0, i32 3
  %43 = load i64, ptr %42, align 8
  %44 = sub i64 %43, 8
  %45 = load i64, ptr %6, align 8
  %46 = udiv i64 %44, %45
  store i64 %46, ptr %7, align 8
  %47 = load i64, ptr %7, align 8
  %48 = load i64, ptr %6, align 8
  %49 = mul i64 %47, %48
  %50 = add i64 %49, 8
  store i64 %50, ptr %8, align 8
  %51 = load ptr, ptr %3, align 8
  %52 = getelementptr inbounds %struct.mempool_s, ptr %51, i32 0, i32 6
  %53 = load ptr, ptr %52, align 8
  %54 = load ptr, ptr %3, align 8
  %55 = load i64, ptr %8, align 8
  %56 = call ptr %53(ptr noundef %54, i64 noundef %55)
  store ptr %56, ptr %9, align 8
  %57 = load ptr, ptr %9, align 8
  %58 = icmp eq ptr %57, null
  br i1 %58, label %59, label %60

59:                                               ; preds = %40
  store ptr null, ptr %2, align 8
  br label %127

60:                                               ; preds = %40
  %61 = call i64 @up_irq_save()
  store i64 %61, ptr %5, align 8
  %62 = load ptr, ptr %3, align 8
  %63 = getelementptr inbounds %struct.mempool_s, ptr %62, i32 0, i32 9
  %64 = load ptr, ptr %9, align 8
  %65 = load i64, ptr %7, align 8
  %66 = load i64, ptr %6, align 8
  call void @mempool_add_queue(ptr noundef %63, ptr noundef %64, i64 noundef %65, i64 noundef %66)
  br label %67

67:                                               ; preds = %60
  %68 = load ptr, ptr %9, align 8
  %69 = load i64, ptr %7, align 8
  %70 = load i64, ptr %6, align 8
  %71 = mul i64 %69, %70
  %72 = getelementptr inbounds i8, ptr %68, i64 %71
  store ptr %72, ptr %10, align 8
  %73 = load ptr, ptr %10, align 8
  %74 = getelementptr inbounds %struct.sq_entry_s, ptr %73, i32 0, i32 0
  store ptr null, ptr %74, align 8
  %75 = load ptr, ptr %3, align 8
  %76 = getelementptr inbounds %struct.mempool_s, ptr %75, i32 0, i32 11
  %77 = getelementptr inbounds %struct.sq_queue_s, ptr %76, i32 0, i32 0
  %78 = load ptr, ptr %77, align 8
  %79 = icmp ne ptr %78, null
  br i1 %79, label %89, label %80

80:                                               ; preds = %67
  %81 = load ptr, ptr %10, align 8
  %82 = load ptr, ptr %3, align 8
  %83 = getelementptr inbounds %struct.mempool_s, ptr %82, i32 0, i32 11
  %84 = getelementptr inbounds %struct.sq_queue_s, ptr %83, i32 0, i32 0
  store ptr %81, ptr %84, align 8
  %85 = load ptr, ptr %10, align 8
  %86 = load ptr, ptr %3, align 8
  %87 = getelementptr inbounds %struct.mempool_s, ptr %86, i32 0, i32 11
  %88 = getelementptr inbounds %struct.sq_queue_s, ptr %87, i32 0, i32 1
  store ptr %85, ptr %88, align 8
  br label %100

89:                                               ; preds = %67
  %90 = load ptr, ptr %10, align 8
  %91 = load ptr, ptr %3, align 8
  %92 = getelementptr inbounds %struct.mempool_s, ptr %91, i32 0, i32 11
  %93 = getelementptr inbounds %struct.sq_queue_s, ptr %92, i32 0, i32 1
  %94 = load ptr, ptr %93, align 8
  %95 = getelementptr inbounds %struct.sq_entry_s, ptr %94, i32 0, i32 0
  store ptr %90, ptr %95, align 8
  %96 = load ptr, ptr %10, align 8
  %97 = load ptr, ptr %3, align 8
  %98 = getelementptr inbounds %struct.mempool_s, ptr %97, i32 0, i32 11
  %99 = getelementptr inbounds %struct.sq_queue_s, ptr %98, i32 0, i32 1
  store ptr %96, ptr %99, align 8
  br label %100

100:                                              ; preds = %89, %80
  br label %101

101:                                              ; preds = %100
  %102 = load ptr, ptr %3, align 8
  %103 = getelementptr inbounds %struct.mempool_s, ptr %102, i32 0, i32 9
  %104 = call ptr @mempool_remove_queue(ptr noundef %103)
  store ptr %104, ptr %4, align 8
  br label %117

105:                                              ; preds = %29
  %106 = load ptr, ptr %3, align 8
  %107 = getelementptr inbounds %struct.mempool_s, ptr %106, i32 0, i32 4
  %108 = load i8, ptr %107, align 8
  %109 = trunc i8 %108 to i1
  br i1 %109, label %110, label %115

110:                                              ; preds = %105
  %111 = load ptr, ptr %3, align 8
  %112 = getelementptr inbounds %struct.mempool_s, ptr %111, i32 0, i32 14
  %113 = call i32 @nxsem_wait_uninterruptible(ptr noundef %112)
  %114 = icmp slt i32 %113, 0
  br i1 %114, label %115, label %116

115:                                              ; preds = %110, %105
  store ptr null, ptr %2, align 8
  br label %127

116:                                              ; preds = %110
  br label %11

117:                                              ; preds = %101
  br label %118

118:                                              ; preds = %117, %28
  br label %119

119:                                              ; preds = %118, %11
  %120 = load ptr, ptr %3, align 8
  %121 = getelementptr inbounds %struct.mempool_s, ptr %120, i32 0, i32 12
  %122 = load i64, ptr %121, align 8
  %123 = add i64 %122, 1
  store i64 %123, ptr %121, align 8
  br label %124

124:                                              ; preds = %119, %27
  %125 = load i64, ptr %5, align 8
  call void @up_irq_restore(i64 noundef %125)
  %126 = load ptr, ptr %4, align 8
  store ptr %126, ptr %2, align 8
  br label %127

127:                                              ; preds = %124, %115, %59
  %128 = load ptr, ptr %2, align 8
  ret ptr %128
}