; Function Attrs: nounwind uwtable
define ptr @mempool_alloc(ptr noundef %0) local_unnamed_addr #0 {
  %2 = alloca i64, align 8
  %3 = alloca i64, align 8
  %4 = getelementptr inbounds nuw i8, ptr %0, i64 72
  %5 = getelementptr inbounds nuw i8, ptr %0, i64 24
  %6 = getelementptr inbounds nuw i8, ptr %0, i64 32
  %7 = getelementptr inbounds nuw i8, ptr %0, i64 136
  br label %8

8:                                                ; preds = %62, %1
  call void @llvm.lifetime.start.p0(i64 8, ptr nonnull %3)
  call void asm sideeffect "\09pushfq\0A\09popq $0\0A", "=*rm,~{memory},~{dirflag},~{fpsr},~{flags}"(ptr nonnull elementtype(i64) %3) #4, !srcloc !8
  %9 = load i64, ptr %3, align 8
  call void @llvm.lifetime.end.p0(i64 8, ptr nonnull %3)
  call void asm sideeffect "cli", "~{memory},~{dirflag},~{fpsr},~{flags}"() #4, !srcloc !9
  %10 = load ptr, ptr %4, align 8
  %11 = icmp eq ptr %10, null
  br i1 %11, label %13, label %mempool_remove_queue.exit

mempool_remove_queue.exit:                        ; preds = %8
  %12 = load ptr, ptr %10, align 8
  store ptr %12, ptr %4, align 8
  br label %mempool_remove_queue.exit51

13:                                               ; preds = %8
  %14 = load ptr, ptr @g_current_regs, align 8
  %.not = icmp eq ptr %14, null
  br i1 %.not, label %20, label %15

15:                                               ; preds = %13
  %16 = getelementptr inbounds nuw i8, ptr %0, i64 88
  %17 = load ptr, ptr %16, align 8
  %18 = icmp eq ptr %17, null
  br i1 %18, label %mempool_remove_queue.exit49.thread, label %mempool_remove_queue.exit49

mempool_remove_queue.exit49:                      ; preds = %15
  %19 = load ptr, ptr %17, align 8
  store ptr %19, ptr %16, align 8
  br label %mempool_remove_queue.exit51

20:                                               ; preds = %13
  %21 = load i64, ptr %0, align 8
  %22 = and i64 %9, 512
  %.not.i = icmp eq i64 %22, 0
  br i1 %.not.i, label %up_irq_restore.exit, label %23

23:                                               ; preds = %20
  call void asm sideeffect "sti", "~{memory},~{dirflag},~{fpsr},~{flags}"() #4, !srcloc !10
  br label %up_irq_restore.exit

up_irq_restore.exit:                              ; preds = %20, %23
  %24 = load i64, ptr %5, align 8
  %25 = add i64 %21, 8
  %.not47 = icmp ult i64 %24, %25
  br i1 %.not47, label %59, label %26

26:                                               ; preds = %up_irq_restore.exit
  %27 = add i64 %24, -8
  %28 = udiv i64 %27, %21
  %29 = mul i64 %28, %21
  %30 = add i64 %29, 8
  %31 = getelementptr inbounds nuw i8, ptr %0, i64 48
  %32 = load ptr, ptr %31, align 8
  %33 = call ptr %32(ptr noundef nonnull %0, i64 noundef %30) #4
  %34 = icmp eq ptr %33, null
  br i1 %34, label %up_irq_restore.exit53, label %35

35:                                               ; preds = %26
  call void @llvm.lifetime.start.p0(i64 8, ptr nonnull %2)
  call void asm sideeffect "\09pushfq\0A\09popq $0\0A", "=*rm,~{memory},~{dirflag},~{fpsr},~{flags}"(ptr nonnull elementtype(i64) %2) #4, !srcloc !8
  %36 = load i64, ptr %2, align 8
  call void @llvm.lifetime.end.p0(i64 8, ptr nonnull %2)
  call void asm sideeffect "cli", "~{memory},~{dirflag},~{fpsr},~{flags}"() #4, !srcloc !9
  %.not11.i = icmp ugt i64 %21, %27
  br i1 %.not11.i, label %mempool_add_queue.exit, label %.lr.ph.i

.lr.ph.i:                                         ; preds = %35
  %37 = getelementptr inbounds nuw i8, ptr %0, i64 80
  %.pre.i = load ptr, ptr %4, align 8
  br label %38

38:                                               ; preds = %45, %.lr.ph.i
  %39 = phi ptr [ %.pre.i, %.lr.ph.i ], [ %42, %45 ]
  %.in.i = phi i64 [ %28, %.lr.ph.i ], [ %40, %45 ]
  %40 = add i64 %.in.i, -1
  %41 = mul i64 %40, %21
  %42 = getelementptr inbounds i8, ptr %33, i64 %41
  store ptr %39, ptr %42, align 8
  %43 = load ptr, ptr %4, align 8
  %.not10.i = icmp eq ptr %43, null
  br i1 %.not10.i, label %44, label %45

44:                                               ; preds = %38
  store ptr %42, ptr %37, align 8
  br label %45

45:                                               ; preds = %44, %38
  store ptr %42, ptr %4, align 8
  %.not.i50 = icmp eq i64 %40, 0
  br i1 %.not.i50, label %mempool_add_queue.exit, label %38, !llvm.loop !6

mempool_add_queue.exit:                           ; preds = %45, %35
  %46 = getelementptr inbounds i8, ptr %33, i64 %29
  store ptr null, ptr %46, align 8
  %47 = getelementptr inbounds nuw i8, ptr %0, i64 104
  %48 = load ptr, ptr %47, align 8
  %.not48 = icmp eq ptr %48, null
  br i1 %.not48, label %49, label %51

49:                                               ; preds = %mempool_add_queue.exit
  store ptr %46, ptr %47, align 8
  %50 = getelementptr inbounds nuw i8, ptr %0, i64 112
  store ptr %46, ptr %50, align 8
  br label %54

51:                                               ; preds = %mempool_add_queue.exit
  %52 = getelementptr inbounds nuw i8, ptr %0, i64 112
  %53 = load ptr, ptr %52, align 8
  store ptr %46, ptr %53, align 8
  store ptr %46, ptr %52, align 8
  br label %54

54:                                               ; preds = %49, %51
  %55 = load ptr, ptr %4, align 8
  %56 = icmp eq ptr %55, null
  br i1 %56, label %mempool_remove_queue.exit51, label %57

57:                                               ; preds = %54
  %58 = load ptr, ptr %55, align 8
  store ptr %58, ptr %4, align 8
  br label %mempool_remove_queue.exit51

59:                                               ; preds = %up_irq_restore.exit
  %60 = load i8, ptr %6, align 8
  %61 = trunc i8 %60 to i1
  br i1 %61, label %62, label %up_irq_restore.exit53

62:                                               ; preds = %59
  %63 = call i32 @nxsem_wait_uninterruptible(ptr noundef nonnull %7) #4
  %64 = icmp slt i32 %63, 0
  br i1 %64, label %up_irq_restore.exit53, label %8

mempool_remove_queue.exit51:                      ; preds = %57, %54, %mempool_remove_queue.exit49, %mempool_remove_queue.exit
  %.040 = phi i64 [ %9, %mempool_remove_queue.exit49 ], [ %9, %mempool_remove_queue.exit ], [ %36, %54 ], [ %36, %57 ]
  %.039 = phi ptr [ %17, %mempool_remove_queue.exit49 ], [ %10, %mempool_remove_queue.exit ], [ null, %54 ], [ %55, %57 ]
  %65 = getelementptr inbounds nuw i8, ptr %0, i64 120
  %66 = load i64, ptr %65, align 8
  %67 = add i64 %66, 1
  store i64 %67, ptr %65, align 8
  br label %mempool_remove_queue.exit49.thread

mempool_remove_queue.exit49.thread:               ; preds = %15, %mempool_remove_queue.exit51
  %.141 = phi i64 [ %.040, %mempool_remove_queue.exit51 ], [ %9, %15 ]
  %.1 = phi ptr [ %.039, %mempool_remove_queue.exit51 ], [ null, %15 ]
  %68 = and i64 %.141, 512
  %.not.i52 = icmp eq i64 %68, 0
  br i1 %.not.i52, label %up_irq_restore.exit53, label %69

69:                                               ; preds = %mempool_remove_queue.exit49.thread
  call void asm sideeffect "sti", "~{memory},~{dirflag},~{fpsr},~{flags}"() #4, !srcloc !10
  br label %up_irq_restore.exit53

up_irq_restore.exit53:                            ; preds = %59, %62, %69, %mempool_remove_queue.exit49.thread, %26
  %.0 = phi ptr [ null, %26 ], [ %.1, %mempool_remove_queue.exit49.thread ], [ %.1, %69 ], [ null, %62 ], [ null, %59 ]
  ret ptr %.0
}